; Function Attrs: mustprogress nofree nounwind willreturn memory(readwrite, inaccessiblemem: write) uwtable
define internal { double, double } @_ZL16fouc_s_s_forward5PJ_LPP8PJconsts(double %0, double %1, ptr noundef readonly captures(none) %2) #3 {
  %4 = getelementptr inbounds nuw i8, ptr %2, i64 88
  %5 = load ptr, ptr %4, align 8, !tbaa !3
  %6 = tail call double @cos(double noundef %1) #7, !tbaa !51
  %7 = fmul double %0, %6
  %8 = load double, ptr %5, align 8, !tbaa !38
  %9 = getelementptr inbounds nuw i8, ptr %5, i64 8
  %10 = load double, ptr %9, align 8, !tbaa !40
  %11 = tail call double @llvm.fmuladd.f64(double %10, double %6, double %8)
  %12 = fdiv double %7, %11
  %13 = tail call double @sin(double noundef %1) #7, !tbaa !51
  %14 = fmul double %10, %13
  %15 = tail call double @llvm.fmuladd.f64(double %8, double %1, double %14)
  %.fca.0.insert = insertvalue { double, double } poison, double %12, 0
  %.fca.1.insert = insertvalue { double, double } %.fca.0.insert, double %15, 1
  ret { double, double } %.fca.1.insert
}